; ModuleID = 'bench/llvm/original/MCCodeEmitter.cpp.ll'
source_filename = "bench/llvm/original/MCCodeEmitter.cpp.ll"
target datalayout = "e-m:e-p270:32:32-p271:32:32-p272:64:64-i64:64-i128:128-f80:128-n8:16:32:64-S128"
target triple = "x86_64-pc-linux-gnu"

$_ZN4llvm13MCCodeEmitter5resetEv = comdat any

@_ZTVN4llvm13MCCodeEmitterE = unnamed_addr constant { [6 x ptr] } { [6 x ptr] [ptr null, ptr null, ptr @_ZN4llvm13MCCodeEmitterD1Ev, ptr @_ZN4llvm13MCCodeEmitterD0Ev, ptr @_ZN4llvm13MCCodeEmitter5resetEv, ptr @__cxa_pure_virtual] }, align 8

@_ZN4llvm13MCCodeEmitterD1Ev = unnamed_addr alias void (ptr), ptr @_ZN4llvm13MCCodeEmitterD2Ev

; Function Attrs: mustprogress nofree norecurse nosync nounwind willreturn memory(argmem: write) uwtable
define dso_local void @_ZN4llvm13MCCodeEmitterC2Ev(ptr noundef nonnull writeonly align 8 captures(none) dereferenceable(8) initializes((0, 8)) %0) unnamed_addr #0 align 2 {
  store ptr getelementptr inbounds nuw inrange(-16, 32) (i8, ptr @_ZTVN4llvm13MCCodeEmitterE, i64 16), ptr %0, align 8
  ret void
}

; Function Attrs: mustprogress nofree norecurse nosync nounwind willreturn memory(none) uwtable
define dso_local void @_ZN4llvm13MCCodeEmitterD2Ev(ptr nonnull readnone align 8 captures(none) %0) unnamed_addr #1 align 2 {
  ret void
}

; Function Attrs: cold mustprogress noreturn nounwind memory(inaccessiblemem: write) uwtable
define dso_local void @_ZN4llvm13MCCodeEmitterD0Ev(ptr nonnull readnone align 8 captures(none) %0) unnamed_addr #2 align 2 {
  tail call void @llvm.trap() #5
  unreachable
}

; Function Attrs: cold noreturn nounwind memory(inaccessiblemem: write)
declare void @llvm.trap() #3

; Function Attrs: mustprogress nounwind uwtable
define linkonce_odr hidden void @_ZN4llvm13MCCodeEmitter5resetEv(ptr noundef nonnull align 8 dereferenceable(8) %0) unnamed_addr #4 comdat align 2 {
  ret void
}

declare void @__cxa_pure_virtual() unnamed_addr


!llvm.module.flags = !{!0, !1, !2, !3}

!0 = !{i32 1, !"wchar_size", i32 4}
!1 = !{i32 8, !"PIC Level", i32 2}
!2 = !{i32 7, !"uwtable", i32 2}
!3 = !{i32 7, !"frame-pointer", i32 2}
